target datalayout = "e-m:e-p270:32:32-p271:32:32-p272:64:64-i64:64-i128:128-f80:128-n8:16:32:64-S128"
target triple = "x86_64-pc-linux-gnu"

; Function Attrs: nounwind uwtable
define internal void @kwsysProcessCleanupDescriptor(ptr noundef %0) #0 {
  %2 = alloca ptr, align 8
  store ptr %0, ptr %2, align 8, !tbaa !56
  %3 = load ptr, ptr %2, align 8, !tbaa !56
  %4 = icmp ne ptr %3, null
  br i1 %4, label %5, label %24

5:                                                ; preds = %1
  %6 = load ptr, ptr %2, align 8, !tbaa !56
  %7 = load i32, ptr %6, align 4, !tbaa !20
  %8 = icmp sgt i32 %7, 2
  br i1 %8, label %9, label %24

9:                                                ; preds = %5
  br label %10

10:                                               ; preds = %21, %9
  %11 = load ptr, ptr %2, align 8, !tbaa !56
  %12 = load i32, ptr %11, align 4, !tbaa !20
  %13 = call i32 @close(i32 noundef %12)
  %14 = icmp slt i32 %13, 0
  br i1 %14, label %15, label %19

15:                                               ; preds = %10
  %16 = call ptr @__errno_location() #14
  %17 = load i32, ptr %16, align 4, !tbaa !20
  %18 = icmp eq i32 %17, 4
  br label %19

19:                                               ; preds = %15, %10
  %20 = phi i1 [ false, %10 ], [ %18, %15 ]
  br i1 %20, label %21, label %22

21:                                               ; preds = %19
  br label %10, !llvm.loop !107

22:                                               ; preds = %19
  %23 = load ptr, ptr %2, align 8, !tbaa !56
  store i32 -1, ptr %23, align 4, !tbaa !20
  br label %24

24:                                               ; preds = %22, %5, %1
  ret void
}

; Function Attrs: nounwind uwtable
define internal i32 @kwsysProcessSetupOutputPipeFile(ptr noundef %0, ptr noundef %1) #0 {
  %3 = alloca i32, align 4
  %4 = alloca ptr, align 8
  %5 = alloca ptr, align 8
  %6 = alloca i32, align 4
  %7 = alloca i32, align 4
  store ptr %0, ptr %4, align 8, !tbaa !56
  store ptr %1, ptr %5, align 8, !tbaa !42
  call void @llvm.lifetime.start.p0(i64 4, ptr %6) #11
  %8 = load ptr, ptr %5, align 8, !tbaa !42
  %9 = icmp ne ptr %8, null
  br i1 %9, label %11, label %10

10:                                               ; preds = %2
  store i32 1, ptr %3, align 4
  store i32 1, ptr %7, align 4
  br label %27

11:                                               ; preds = %2
  %12 = load ptr, ptr %4, align 8, !tbaa !56
  call void @kwsysProcessCleanupDescriptor(ptr noundef %12)
  %13 = load ptr, ptr %5, align 8, !tbaa !42
  %14 = call i32 (ptr, i32, ...) @open(ptr noundef %13, i32 noundef 577, i32 noundef 438)
  store i32 %14, ptr %6, align 4, !tbaa !20
  %15 = icmp slt i32 %14, 0
  br i1 %15, label %16, label %17

16:                                               ; preds = %11
  store i32 0, ptr %3, align 4
  store i32 1, ptr %7, align 4
  br label %27

17:                                               ; preds = %11
  %18 = load i32, ptr %6, align 4, !tbaa !20
  %19 = call i32 (i32, i32, ...) @fcntl(i32 noundef %18, i32 noundef 2, i32 noundef 1)
  %20 = icmp slt i32 %19, 0
  br i1 %20, label %21, label %24

21:                                               ; preds = %17
  %22 = load i32, ptr %6, align 4, !tbaa !20
  %23 = call i32 @close(i32 noundef %22)
  store i32 0, ptr %3, align 4
  store i32 1, ptr %7, align 4
  br label %27

24:                                               ; preds = %17
  %25 = load i32, ptr %6, align 4, !tbaa !20
  %26 = load ptr, ptr %4, align 8, !tbaa !56
  store i32 %25, ptr %26, align 4, !tbaa !20
  store i32 1, ptr %3, align 4
  store i32 1, ptr %7, align 4
  br label %27

27:                                               ; preds = %24, %21, %16, %10
  call void @llvm.lifetime.end.p0(i64 4, ptr %6) #11
  %28 = load i32, ptr %3, align 4
  ret i32 %28
}