; Function Attrs: nounwind uwtable
define internal fastcc range(i32 0, 2) i32 @kwsysProcessSetupOutputPipeFile(ptr noundef nonnull captures(none) %0, ptr noundef nonnull readonly captures(none) %1) unnamed_addr #4 {
  %3 = load i32, ptr %0, align 4, !tbaa !35
  %4 = icmp sgt i32 %3, 2
  br i1 %4, label %.preheader.i, label %kwsysProcessCleanupDescriptor.exit

.preheader.i:                                     ; preds = %2, %8
  %5 = load i32, ptr %0, align 4, !tbaa !35
  %6 = tail call i32 @close(i32 noundef %5) #25
  %7 = icmp slt i32 %6, 0
  br i1 %7, label %8, label %.critedge.i

8:                                                ; preds = %.preheader.i
  %9 = tail call ptr @__errno_location() #28
  %10 = load i32, ptr %9, align 4, !tbaa !35
  %11 = icmp eq i32 %10, 4
  br i1 %11, label %.preheader.i, label %.critedge.i, !llvm.loop !94

.critedge.i:                                      ; preds = %8, %.preheader.i
  store i32 -1, ptr %0, align 4, !tbaa !35
  br label %kwsysProcessCleanupDescriptor.exit

kwsysProcessCleanupDescriptor.exit:               ; preds = %2, %.critedge.i
  %12 = tail call i32 (ptr, i32, ...) @open(ptr noundef nonnull %1, i32 noundef 577, i32 noundef 438) #25
  %13 = icmp slt i32 %12, 0
  br i1 %13, label %20, label %14

14:                                               ; preds = %kwsysProcessCleanupDescriptor.exit
  %15 = tail call i32 (i32, i32, ...) @fcntl(i32 noundef %12, i32 noundef 2, i32 noundef 1) #25
  %16 = icmp slt i32 %15, 0
  br i1 %16, label %17, label %19

17:                                               ; preds = %14
  %18 = tail call i32 @close(i32 noundef %12) #25
  br label %20

19:                                               ; preds = %14
  store i32 %12, ptr %0, align 4, !tbaa !35
  br label %20

20:                                               ; preds = %kwsysProcessCleanupDescriptor.exit, %19, %17
  %.0 = phi i32 [ 0, %17 ], [ 1, %19 ], [ 0, %kwsysProcessCleanupDescriptor.exit ]
  ret i32 %.0
}